target datalayout = "e-m:e-p270:32:32-p271:32:32-p272:64:64-i64:64-i128:128-f80:128-n8:16:32:64-S128"
target triple = "x86_64-pc-linux-gnu"

%struct.RLTable = type { i32, i32, ptr, ptr, ptr, [2 x ptr], [2 x ptr], [2 x ptr], [32 x ptr] }
%struct.VLCElem = type { %union.anon }
%union.anon = type { %struct.anon }
%struct.anon = type { i16, i16 }
%struct.anon.0 = type { i16, i8, i8 }

; Function Attrs: cold nounwind optsize uwtable
define void @ff_rl_init_vlc(ptr noundef %0, i32 noundef %1) #0 {
  %3 = alloca ptr, align 8
  %4 = alloca i32, align 4
  %5 = alloca ptr, align 8
  %6 = alloca i32, align 4
  %7 = alloca i32, align 4
  %8 = alloca i32, align 4
  %9 = alloca i32, align 4
  %10 = alloca i32, align 4
  %11 = alloca i32, align 4
  %12 = alloca i32, align 4
  %13 = alloca i32, align 4
  %14 = alloca i32, align 4
  store ptr %0, ptr %3, align 8, !tbaa !14
  store i32 %1, ptr %4, align 4, !tbaa !9
  call void @llvm.lifetime.start.p0(i64 8, ptr %5) #4
  %15 = load ptr, ptr %3, align 8, !tbaa !14
  %16 = getelementptr inbounds nuw %struct.RLTable, ptr %15, i32 0, i32 8
  %17 = getelementptr inbounds [32 x ptr], ptr %16, i64 0, i64 0
  %18 = load ptr, ptr %17, align 8, !tbaa !24
  %19 = load i32, ptr %4, align 4, !tbaa !9
  %20 = load ptr, ptr %3, align 8, !tbaa !14
  %21 = getelementptr inbounds nuw %struct.RLTable, ptr %20, i32 0, i32 0
  %22 = load i32, ptr %21, align 8, !tbaa !19
  %23 = add nsw i32 %22, 1
  %24 = load ptr, ptr %3, align 8, !tbaa !14
  %25 = getelementptr inbounds nuw %struct.RLTable, ptr %24, i32 0, i32 2
  %26 = load ptr, ptr %25, align 8, !tbaa !26
  %27 = getelementptr inbounds [2 x i16], ptr %26, i64 0
  %28 = getelementptr inbounds [2 x i16], ptr %27, i64 0, i64 1
  %29 = load ptr, ptr %3, align 8, !tbaa !14
  %30 = getelementptr inbounds nuw %struct.RLTable, ptr %29, i32 0, i32 2
  %31 = load ptr, ptr %30, align 8, !tbaa !26
  %32 = getelementptr inbounds [2 x i16], ptr %31, i64 0
  %33 = getelementptr inbounds [2 x i16], ptr %32, i64 0, i64 0
  call void @ff_vlc_init_table_sparse(ptr noundef %18, i32 noundef %19, i32 noundef 9, i32 noundef %23, ptr noundef %28, i32 noundef 4, i32 noundef 2, ptr noundef %33, i32 noundef 4, i32 noundef 2, ptr noundef null, i32 noundef 0, i32 noundef 0, i32 noundef 0)
  %34 = load ptr, ptr %3, align 8, !tbaa !14
  %35 = getelementptr inbounds nuw %struct.RLTable, ptr %34, i32 0, i32 8
  %36 = getelementptr inbounds [32 x ptr], ptr %35, i64 0, i64 0
  %37 = load ptr, ptr %36, align 8, !tbaa !24
  store ptr %37, ptr %5, align 8, !tbaa !24
  call void @llvm.lifetime.start.p0(i64 4, ptr %6) #4
  store i32 32, ptr %6, align 4, !tbaa !9
  br label %38

38:                                               ; preds = %178, %176, %2
  %39 = load i32, ptr %6, align 4, !tbaa !9
  %40 = add nsw i32 %39, -1
  store i32 %40, ptr %6, align 4, !tbaa !9
  %41 = icmp sge i32 %40, 0
  br i1 %41, label %43, label %42

42:                                               ; preds = %38
  store i32 2, ptr %7, align 4
  call void @llvm.lifetime.end.p0(i64 4, ptr %6) #4
  br label %179

43:                                               ; preds = %38
  call void @llvm.lifetime.start.p0(i64 4, ptr %8) #4
  %44 = load i32, ptr %6, align 4, !tbaa !9
  %45 = mul nsw i32 %44, 2
  store i32 %45, ptr %8, align 4, !tbaa !9
  call void @llvm.lifetime.start.p0(i64 4, ptr %9) #4
  %46 = load i32, ptr %6, align 4, !tbaa !9
  %47 = sub nsw i32 %46, 1
  %48 = or i32 %47, 1
  store i32 %48, ptr %9, align 4, !tbaa !9
  %49 = load ptr, ptr %3, align 8, !tbaa !14
  %50 = getelementptr inbounds nuw %struct.RLTable, ptr %49, i32 0, i32 8
  %51 = load i32, ptr %6, align 4, !tbaa !9
  %52 = sext i32 %51 to i64
  %53 = getelementptr inbounds [32 x ptr], ptr %50, i64 0, i64 %52
  %54 = load ptr, ptr %53, align 8, !tbaa !24
  %55 = icmp ne ptr %54, null
  br i1 %55, label %57, label %56

56:                                               ; preds = %43
  store i32 3, ptr %7, align 4
  br label %176, !llvm.loop !27

57:                                               ; preds = %43
  %58 = load i32, ptr %6, align 4, !tbaa !9
  %59 = icmp eq i32 %58, 0
  br i1 %59, label %60, label %61

60:                                               ; preds = %57
  store i32 1, ptr %8, align 4, !tbaa !9
  store i32 0, ptr %9, align 4, !tbaa !9
  br label %61

61:                                               ; preds = %60, %57
  call void @llvm.lifetime.start.p0(i64 4, ptr %10) #4
  store i32 0, ptr %10, align 4, !tbaa !9
  br label %62

62:                                               ; preds = %172, %61
  %63 = load i32, ptr %10, align 4, !tbaa !9
  %64 = load i32, ptr %4, align 4, !tbaa !9
  %65 = icmp ult i32 %63, %64
  br i1 %65, label %67, label %66

66:                                               ; preds = %62
  store i32 4, ptr %7, align 4
  call void @llvm.lifetime.end.p0(i64 4, ptr %10) #4
  br label %175

67:                                               ; preds = %62
  call void @llvm.lifetime.start.p0(i64 4, ptr %11) #4
  %68 = load ptr, ptr %5, align 8, !tbaa !24
  %69 = load i32, ptr %10, align 4, !tbaa !9
  %70 = zext i32 %69 to i64
  %71 = getelementptr inbounds nuw %struct.VLCElem, ptr %68, i64 %70
  %72 = getelementptr inbounds nuw %struct.VLCElem, ptr %71, i32 0, i32 0
  %73 = getelementptr inbounds nuw %struct.anon, ptr %72, i32 0, i32 0
  %74 = load i16, ptr %73, align 2, !tbaa !11
  %75 = sext i16 %74 to i32
  store i32 %75, ptr %11, align 4, !tbaa !9
  call void @llvm.lifetime.start.p0(i64 4, ptr %12) #4
  %76 = load ptr, ptr %5, align 8, !tbaa !24
  %77 = load i32, ptr %10, align 4, !tbaa !9
  %78 = zext i32 %77 to i64
  %79 = getelementptr inbounds nuw %struct.VLCElem, ptr %76, i64 %78
  %80 = getelementptr inbounds nuw %struct.VLCElem, ptr %79, i32 0, i32 0
  %81 = getelementptr inbounds nuw %struct.anon, ptr %80, i32 0, i32 1
  %82 = load i16, ptr %81, align 2, !tbaa !11
  %83 = sext i16 %82 to i32
  store i32 %83, ptr %12, align 4, !tbaa !9
  call void @llvm.lifetime.start.p0(i64 4, ptr %13) #4
  call void @llvm.lifetime.start.p0(i64 4, ptr %14) #4
  %84 = load i32, ptr %12, align 4, !tbaa !9
  %85 = icmp eq i32 %84, 0
  br i1 %85, label %86, label %87

86:                                               ; preds = %67
  store i32 66, ptr %14, align 4, !tbaa !9
  store i32 64, ptr %13, align 4, !tbaa !9
  br label %132

87:                                               ; preds = %67
  %88 = load i32, ptr %12, align 4, !tbaa !9
  %89 = icmp slt i32 %88, 0
  br i1 %89, label %90, label %92

90:                                               ; preds = %87
  store i32 0, ptr %14, align 4, !tbaa !9
  %91 = load i32, ptr %11, align 4, !tbaa !9
  store i32 %91, ptr %13, align 4, !tbaa !9
  br label %131

92:                                               ; preds = %87
  %93 = load i32, ptr %11, align 4, !tbaa !9
  %94 = load ptr, ptr %3, align 8, !tbaa !14
  %95 = getelementptr inbounds nuw %struct.RLTable, ptr %94, i32 0, i32 0
  %96 = load i32, ptr %95, align 8, !tbaa !19
  %97 = icmp eq i32 %93, %96
  br i1 %97, label %98, label %99

98:                                               ; preds = %92
  store i32 66, ptr %14, align 4, !tbaa !9
  store i32 0, ptr %13, align 4, !tbaa !9
  br label %130

99:                                               ; preds = %92
  %100 = load ptr, ptr %3, align 8, !tbaa !14
  %101 = getelementptr inbounds nuw %struct.RLTable, ptr %100, i32 0, i32 3
  %102 = load ptr, ptr %101, align 8, !tbaa !20
  %103 = load i32, ptr %11, align 4, !tbaa !9
  %104 = sext i32 %103 to i64
  %105 = getelementptr inbounds i8, ptr %102, i64 %104
  %106 = load i8, ptr %105, align 1, !tbaa !11
  %107 = sext i8 %106 to i32
  %108 = add nsw i32 %107, 1
  store i32 %108, ptr %14, align 4, !tbaa !9
  %109 = load ptr, ptr %3, align 8, !tbaa !14
  %110 = getelementptr inbounds nuw %struct.RLTable, ptr %109, i32 0, i32 4
  %111 = load ptr, ptr %110, align 8, !tbaa !21
  %112 = load i32, ptr %11, align 4, !tbaa !9
  %113 = sext i32 %112 to i64
  %114 = getelementptr inbounds i8, ptr %111, i64 %113
  %115 = load i8, ptr %114, align 1, !tbaa !11
  %116 = sext i8 %115 to i32
  %117 = load i32, ptr %8, align 4, !tbaa !9
  %118 = mul nsw i32 %116, %117
  %119 = load i32, ptr %9, align 4, !tbaa !9
  %120 = add nsw i32 %118, %119
  store i32 %120, ptr %13, align 4, !tbaa !9
  %121 = load i32, ptr %11, align 4, !tbaa !9
  %122 = load ptr, ptr %3, align 8, !tbaa !14
  %123 = getelementptr inbounds nuw %struct.RLTable, ptr %122, i32 0, i32 1
  %124 = load i32, ptr %123, align 4, !tbaa !16
  %125 = icmp sge i32 %121, %124
  br i1 %125, label %126, label %129

126:                                              ; preds = %99
  %127 = load i32, ptr %14, align 4, !tbaa !9
  %128 = add nsw i32 %127, 192
  store i32 %128, ptr %14, align 4, !tbaa !9
  br label %129

129:                                              ; preds = %126, %99
  br label %130

130:                                              ; preds = %129, %98
  br label %131

131:                                              ; preds = %130, %90
  br label %132

132:                                              ; preds = %131, %86
  %133 = load i32, ptr %12, align 4, !tbaa !9
  %134 = trunc i32 %133 to i8
  %135 = load ptr, ptr %3, align 8, !tbaa !14
  %136 = getelementptr inbounds nuw %struct.RLTable, ptr %135, i32 0, i32 8
  %137 = load i32, ptr %6, align 4, !tbaa !9
  %138 = sext i32 %137 to i64
  %139 = getelementptr inbounds [32 x ptr], ptr %136, i64 0, i64 %138
  %140 = load ptr, ptr %139, align 8, !tbaa !24
  %141 = load i32, ptr %10, align 4, !tbaa !9
  %142 = zext i32 %141 to i64
  %143 = getelementptr inbounds nuw %struct.VLCElem, ptr %140, i64 %142
  %144 = getelementptr inbounds nuw %struct.VLCElem, ptr %143, i32 0, i32 0
  %145 = getelementptr inbounds nuw %struct.anon.0, ptr %144, i32 0, i32 1
  store i8 %134, ptr %145, align 2, !tbaa !11
  %146 = load i32, ptr %13, align 4, !tbaa !9
  %147 = trunc i32 %146 to i16
  %148 = load ptr, ptr %3, align 8, !tbaa !14
  %149 = getelementptr inbounds nuw %struct.RLTable, ptr %148, i32 0, i32 8
  %150 = load i32, ptr %6, align 4, !tbaa !9
  %151 = sext i32 %150 to i64
  %152 = getelementptr inbounds [32 x ptr], ptr %149, i64 0, i64 %151
  %153 = load ptr, ptr %152, align 8, !tbaa !24
  %154 = load i32, ptr %10, align 4, !tbaa !9
  %155 = zext i32 %154 to i64
  %156 = getelementptr inbounds nuw %struct.VLCElem, ptr %153, i64 %155
  %157 = getelementptr inbounds nuw %struct.VLCElem, ptr %156, i32 0, i32 0
  %158 = getelementptr inbounds nuw %struct.anon.0, ptr %157, i32 0, i32 0
  store i16 %147, ptr %158, align 2, !tbaa !11
  %159 = load i32, ptr %14, align 4, !tbaa !9
  %160 = trunc i32 %159 to i8
  %161 = load ptr, ptr %3, align 8, !tbaa !14
  %162 = getelementptr inbounds nuw %struct.RLTable, ptr %161, i32 0, i32 8
  %163 = load i32, ptr %6, align 4, !tbaa !9
  %164 = sext i32 %163 to i64
  %165 = getelementptr inbounds [32 x ptr], ptr %162, i64 0, i64 %164
  %166 = load ptr, ptr %165, align 8, !tbaa !24
  %167 = load i32, ptr %10, align 4, !tbaa !9
  %168 = zext i32 %167 to i64
  %169 = getelementptr inbounds nuw %struct.VLCElem, ptr %166, i64 %168
  %170 = getelementptr inbounds nuw %struct.VLCElem, ptr %169, i32 0, i32 0
  %171 = getelementptr inbounds nuw %struct.anon.0, ptr %170, i32 0, i32 2
  store i8 %160, ptr %171, align 1, !tbaa !11
  call void @llvm.lifetime.end.p0(i64 4, ptr %14) #4
  call void @llvm.lifetime.end.p0(i64 4, ptr %13) #4
  call void @llvm.lifetime.end.p0(i64 4, ptr %12) #4
  call void @llvm.lifetime.end.p0(i64 4, ptr %11) #4
  br label %172

172:                                              ; preds = %132
  %173 = load i32, ptr %10, align 4, !tbaa !9
  %174 = add i32 %173, 1
  store i32 %174, ptr %10, align 4, !tbaa !9
  br label %62, !llvm.loop !28

175:                                              ; preds = %66
  store i32 0, ptr %7, align 4
  br label %176

176:                                              ; preds = %175, %56
  call void @llvm.lifetime.end.p0(i64 4, ptr %9) #4
  call void @llvm.lifetime.end.p0(i64 4, ptr %8) #4
  %177 = load i32, ptr %7, align 4
  switch i32 %177, label %180 [
    i32 0, label %178
    i32 3, label %38
  ]

178:                                              ; preds = %176
  br label %38, !llvm.loop !27

179:                                              ; preds = %42
  call void @llvm.lifetime.end.p0(i64 8, ptr %5) #4
  ret void

180:                                              ; preds = %176
  unreachable
}