; Function Attrs: cold nounwind optsize uwtable
define void @ff_rl_init_vlc(ptr noundef readonly captures(none) %0, i32 noundef %1) local_unnamed_addr #3 {
  %3 = getelementptr inbounds nuw i8, ptr %0, i64 80
  %4 = load ptr, ptr %3, align 8, !tbaa !22
  %5 = load i32, ptr %0, align 8, !tbaa !16
  %6 = add nsw i32 %5, 1
  %7 = getelementptr inbounds nuw i8, ptr %0, i64 8
  %8 = load ptr, ptr %7, align 8, !tbaa !24
  %9 = getelementptr inbounds nuw i8, ptr %8, i64 2
  tail call void @ff_vlc_init_table_sparse(ptr noundef %4, i32 noundef %1, i32 noundef 9, i32 noundef %6, ptr noundef nonnull %9, i32 noundef 4, i32 noundef 2, ptr noundef %8, i32 noundef 4, i32 noundef 2, ptr noundef null, i32 noundef 0, i32 noundef 0, i32 noundef 0) #5
  %10 = load ptr, ptr %3, align 8, !tbaa !22
  %.not57 = icmp eq i32 %1, 0
  %11 = getelementptr inbounds nuw i8, ptr %0, i64 16
  %12 = getelementptr inbounds nuw i8, ptr %0, i64 24
  %13 = getelementptr inbounds nuw i8, ptr %0, i64 4
  %wide.trip.count = zext i32 %1 to i64
  br label %15

14:                                               ; preds = %.loopexit
  ret void

15:                                               ; preds = %2, %.loopexit
  %indvars.iv59 = phi i64 [ 31, %2 ], [ %indvars.iv.next60, %.loopexit ]
  %.04556 = phi i16 [ 32, %2 ], [ %55, %.loopexit ]
  %16 = getelementptr inbounds nuw [32 x ptr], ptr %3, i64 0, i64 %indvars.iv59
  %17 = load ptr, ptr %16, align 8, !tbaa !22
  %.not = icmp eq ptr %17, null
  br i1 %.not, label %.loopexit, label %18, !llvm.loop !25

18:                                               ; preds = %15
  %19 = or i16 %.04556, 1
  %20 = add i16 %19, -2
  %21 = icmp eq i64 %indvars.iv59, 0
  %indvars.iv59.tr = trunc i64 %indvars.iv59 to i16
  %22 = shl i16 %indvars.iv59.tr, 1
  %spec.select = select i1 %21, i16 1, i16 %22
  %spec.select53 = select i1 %21, i16 0, i16 %20
  br i1 %.not57, label %.loopexit, label %.lr.ph

.lr.ph:                                           ; preds = %18, %46
  %indvars.iv = phi i64 [ %indvars.iv.next, %46 ], [ 0, %18 ]
  %23 = getelementptr inbounds nuw %struct.VLCElem, ptr %10, i64 %indvars.iv
  %24 = load i16, ptr %23, align 2, !tbaa !4
  %25 = sext i16 %24 to i32
  %26 = getelementptr inbounds nuw i8, ptr %23, i64 2
  %27 = load i16, ptr %26, align 2, !tbaa !4
  %28 = icmp eq i16 %27, 0
  br i1 %28, label %46, label %29

29:                                               ; preds = %.lr.ph
  %30 = icmp slt i16 %27, 0
  br i1 %30, label %46, label %31

31:                                               ; preds = %29
  %32 = load i32, ptr %0, align 8, !tbaa !16
  %33 = icmp eq i32 %32, %25
  br i1 %33, label %46, label %34

34:                                               ; preds = %31
  %35 = load ptr, ptr %11, align 8, !tbaa !17
  %36 = sext i16 %24 to i64
  %37 = getelementptr inbounds i8, ptr %35, i64 %36
  %38 = load i8, ptr %37, align 1, !tbaa !4
  %39 = load ptr, ptr %12, align 8, !tbaa !18
  %40 = getelementptr inbounds i8, ptr %39, i64 %36
  %41 = load i8, ptr %40, align 1, !tbaa !4
  %42 = sext i8 %41 to i16
  %43 = mul i16 %spec.select, %42
  %44 = add i16 %43, %spec.select53
  %45 = load i32, ptr %13, align 4, !tbaa !9
  %.not52 = icmp sgt i32 %45, %25
  %spec.select54.v = select i1 %.not52, i8 1, i8 -63
  %spec.select54 = add i8 %spec.select54.v, %38
  br label %46

46:                                               ; preds = %34, %31, %29, %.lr.ph
  %.044 = phi i16 [ 64, %.lr.ph ], [ %24, %29 ], [ 0, %31 ], [ %44, %34 ]
  %.0 = phi i8 [ 66, %.lr.ph ], [ 0, %29 ], [ 66, %31 ], [ %spec.select54, %34 ]
  %47 = trunc i16 %27 to i8
  %48 = load ptr, ptr %16, align 8, !tbaa !22
  %49 = getelementptr inbounds nuw %struct.VLCElem, ptr %48, i64 %indvars.iv, i32 0, i32 0, i32 1
  store i8 %47, ptr %49, align 2, !tbaa !4
  %50 = load ptr, ptr %16, align 8, !tbaa !22
  %51 = getelementptr inbounds nuw %struct.VLCElem, ptr %50, i64 %indvars.iv
  store i16 %.044, ptr %51, align 2, !tbaa !4
  %52 = load ptr, ptr %16, align 8, !tbaa !22
  %53 = getelementptr inbounds nuw %struct.VLCElem, ptr %52, i64 %indvars.iv
  %54 = getelementptr inbounds nuw i8, ptr %53, i64 3
  store i8 %.0, ptr %54, align 1, !tbaa !4
  %indvars.iv.next = add nuw nsw i64 %indvars.iv, 1
  %exitcond.not = icmp eq i64 %indvars.iv.next, %wide.trip.count
  br i1 %exitcond.not, label %.loopexit, label %.lr.ph, !llvm.loop !26

.loopexit:                                        ; preds = %46, %18, %15
  %indvars.iv.next60 = add nsw i64 %indvars.iv59, -1
  %.not62 = icmp eq i64 %indvars.iv59, 0
  %55 = trunc i64 %indvars.iv59 to i16
  br i1 %.not62, label %14, label %15
}